; Function Attrs: mustprogress uwtable
define noundef i32 @_ZN8QuantLib36CTSMMCapletMaxHomogeneityCalibration16calibrationImpl_Ejjd(ptr noundef nonnull align 8 dereferenceable(440) %this, i32 noundef %numberOfFactors, i32 noundef %maxIterations, double noundef %tolerance) unnamed_addr #1 align 2 {
entry:
  %corr_ = getelementptr inbounds nuw i8, ptr %this, i64 136
  %0 = load ptr, ptr %corr_, align 8, !tbaa !18
  %cmp.not.i = icmp eq ptr %0, null
  br i1 %cmp.not.i, label %cond.false.i, label %_ZNK5boost10shared_ptrIN8QuantLib28PiecewiseConstantCorrelationEEdeEv.exit, !prof !23

cond.false.i:                                     ; preds = %entry
  tail call void @_ZN5boost16assertion_failedEPKcS1_S1_l(ptr noundef nonnull @.str.23, ptr noundef nonnull @__PRETTY_FUNCTION__._ZNK5boost10shared_ptrIN8QuantLib28PiecewiseConstantCorrelationEEdeEv, ptr noundef nonnull @.str.24, i64 noundef 778)
  %.pre.i = load ptr, ptr %corr_, align 8, !tbaa !18
  br label %_ZNK5boost10shared_ptrIN8QuantLib28PiecewiseConstantCorrelationEEdeEv.exit

_ZNK5boost10shared_ptrIN8QuantLib28PiecewiseConstantCorrelationEEdeEv.exit: ; preds = %entry, %cond.false.i
  %1 = phi ptr [ %0, %entry ], [ %.pre.i, %cond.false.i ]
  %cs_ = getelementptr inbounds nuw i8, ptr %this, i64 296
  %2 = load ptr, ptr %cs_, align 8, !tbaa !34
  %cmp.not.i1 = icmp eq ptr %2, null
  br i1 %cmp.not.i1, label %cond.false.i2, label %_ZNK5boost10shared_ptrIN8QuantLib10CurveStateEEdeEv.exit, !prof !23

cond.false.i2:                                    ; preds = %_ZNK5boost10shared_ptrIN8QuantLib28PiecewiseConstantCorrelationEEdeEv.exit
  tail call void @_ZN5boost16assertion_failedEPKcS1_S1_l(ptr noundef nonnull @.str.23, ptr noundef nonnull @__PRETTY_FUNCTION__._ZNK5boost10shared_ptrIN8QuantLib10CurveStateEEdeEv, ptr noundef nonnull @.str.24, i64 noundef 778)
  %.pre.i3 = load ptr, ptr %cs_, align 8, !tbaa !34
  br label %_ZNK5boost10shared_ptrIN8QuantLib10CurveStateEEdeEv.exit

_ZNK5boost10shared_ptrIN8QuantLib10CurveStateEEdeEv.exit: ; preds = %_ZNK5boost10shared_ptrIN8QuantLib28PiecewiseConstantCorrelationEEdeEv.exit, %cond.false.i2
  %3 = phi ptr [ %2, %_ZNK5boost10shared_ptrIN8QuantLib28PiecewiseConstantCorrelationEEdeEv.exit ], [ %.pre.i3, %cond.false.i2 ]
  %usedCapletVols_ = getelementptr inbounds nuw i8, ptr %this, i64 328
  %displacedSwapVariances_ = getelementptr inbounds nuw i8, ptr %this, i64 152
  %evolution_ = getelementptr inbounds nuw i8, ptr %this, i64 8
  %displacement_ = getelementptr inbounds nuw i8, ptr %this, i64 312
  %4 = load double, ptr %displacement_, align 8, !tbaa !121
  %caplet0Swaption1Priority_ = getelementptr inbounds nuw i8, ptr %this, i64 424
  %5 = load double, ptr %caplet0Swaption1Priority_, align 8, !tbaa !43
  %conv = zext i32 %numberOfFactors to i64
  %conv3 = zext i32 %maxIterations to i64
  %deformationSize_ = getelementptr inbounds nuw i8, ptr %this, i64 360
  %totalSwaptionError_ = getelementptr inbounds nuw i8, ptr %this, i64 432
  %swapCovariancePseudoRoots_ = getelementptr inbounds nuw i8, ptr %this, i64 400
  %call4 = tail call noundef i32 @_ZN8QuantLib36CTSMMCapletMaxHomogeneityCalibration31capletMaxHomogeneityCalibrationERKNS_20EvolutionDescriptionERKNS_28PiecewiseConstantCorrelationERKSt6vectorIN5boost10shared_ptrINS_25PiecewiseConstantVarianceEEESaISB_EERKS7_IdSaIdEERKNS_10CurveStateEddmmdRdSN_RS7_INS_6MatrixESaISO_EE(ptr noundef nonnull align 8 dereferenceable(128) %evolution_, ptr noundef nonnull align 8 dereferenceable(8) %1, ptr noundef nonnull align 8 dereferenceable(24) %displacedSwapVariances_, ptr noundef nonnull align 8 dereferenceable(24) %usedCapletVols_, ptr noundef nonnull align 8 dereferenceable(64) %3, double noundef %4, double noundef %5, i64 noundef %conv, i64 noundef %conv3, double noundef %tolerance, ptr noundef nonnull align 8 dereferenceable(8) %deformationSize_, ptr noundef nonnull align 8 dereferenceable(8) %totalSwaptionError_, ptr noundef nonnull align 8 dereferenceable(24) %swapCovariancePseudoRoots_)
  ret i32 %call4
}